target datalayout = "e-m:e-p270:32:32-p271:32:32-p272:64:64-i64:64-i128:128-f80:128-n8:16:32:64-S128"
target triple = "x86_64-pc-linux-gnu"

%"class.llvm::StringRef" = type { ptr, i64 }
%"class.std::__cxx11::basic_string" = type { %"struct.std::__cxx11::basic_string<char>::_Alloc_hider", i64, %union.anon }
%"struct.std::__cxx11::basic_string<char>::_Alloc_hider" = type { ptr }
%union.anon = type { i64, [8 x i8] }
%"class.llvm::MCContext" = type { i32, %"class.llvm::StringRef", %"class.llvm::Triple", ptr, %"class.std::unique_ptr", %"class.std::vector", %"class.std::function", ptr, ptr, ptr, ptr, %"class.std::unique_ptr.5", %"class.llvm::BumpPtrAllocatorImpl", %"class.llvm::BumpPtrAllocatorImpl", %"class.llvm::SpecificBumpPtrAllocator", %"class.llvm::SpecificBumpPtrAllocator.19", %"class.llvm::SpecificBumpPtrAllocator.20", %"class.llvm::SpecificBumpPtrAllocator.21", %"class.llvm::SpecificBumpPtrAllocator.22", %"class.llvm::SpecificBumpPtrAllocator.23", %"class.llvm::SpecificBumpPtrAllocator.24", %"class.llvm::SpecificBumpPtrAllocator.25", %"class.llvm::SpecificBumpPtrAllocator.26", %"class.llvm::SpecificBumpPtrAllocator.27", %"class.llvm::StringMap", %"class.llvm::DenseMap", %"class.llvm::StringMap.29", %"class.llvm::DenseMap.30", i8, %"class.std::__cxx11::basic_string", %"class.std::unique_ptr.33", i8, %"class.llvm::SmallString", %"class.llvm::SmallVector.47", %"class.std::__cxx11::basic_string", %"class.std::map", %"class.llvm::MCDwarfLoc", i8, i8, i32, %"class.llvm::SetVector", %"class.std::vector.63", %"class.llvm::StringRef", %"class.llvm::StringRef", i16, i8, i8, i8, i32, %"class.llvm::MCPseudoProbeTable", %"class.llvm::StringMap.73", %"class.std::map.74", %"class.llvm::StringMap.80", %"class.std::map.81", %"class.std::map.87", %"class.std::map.93", %"class.llvm::StringMap.99", %"class.llvm::StringMap.100", %"class.llvm::SpecificBumpPtrAllocator.101", i8, ptr, i8, %"class.llvm::StringMap.102", %"class.llvm::DenseMap.103", %"class.llvm::DenseSet.106" }
%"class.llvm::Triple" = type { %"class.std::__cxx11::basic_string", i32, i32, i32, i32, i32, i32 }
%"class.std::unique_ptr" = type { %"struct.std::__uniq_ptr_data" }
%"struct.std::__uniq_ptr_data" = type { %"class.std::__uniq_ptr_impl" }
%"class.std::__uniq_ptr_impl" = type { %"class.std::tuple" }
%"class.std::tuple" = type { %"struct.std::_Tuple_impl" }
%"struct.std::_Tuple_impl" = type { %"struct.std::_Head_base.1" }
%"struct.std::_Head_base.1" = type { ptr }
%"class.std::vector" = type { %"struct.std::_Vector_base" }
%"struct.std::_Vector_base" = type { %"struct.std::_Vector_base<const llvm::MDNode *, std::allocator<const llvm::MDNode *>>::_Vector_impl" }
%"struct.std::_Vector_base<const llvm::MDNode *, std::allocator<const llvm::MDNode *>>::_Vector_impl" = type { %"struct.std::_Vector_base<const llvm::MDNode *, std::allocator<const llvm::MDNode *>>::_Vector_impl_data" }
%"struct.std::_Vector_base<const llvm::MDNode *, std::allocator<const llvm::MDNode *>>::_Vector_impl_data" = type { ptr, ptr, ptr }
%"class.std::function" = type { %"class.std::_Function_base", ptr }
%"class.std::_Function_base" = type { %"union.std::_Any_data", ptr }
%"union.std::_Any_data" = type { %"union.std::_Nocopy_types" }
%"union.std::_Nocopy_types" = type { { i64, i64 } }
%"class.std::unique_ptr.5" = type { %"struct.std::__uniq_ptr_data.6" }
%"struct.std::__uniq_ptr_data.6" = type { %"class.std::__uniq_ptr_impl.7" }
%"class.std::__uniq_ptr_impl.7" = type { %"class.std::tuple.8" }
%"class.std::tuple.8" = type { %"struct.std::_Tuple_impl.9" }
%"struct.std::_Tuple_impl.9" = type { %"struct.std::_Head_base.12" }
%"struct.std::_Head_base.12" = type { ptr }
%"class.llvm::BumpPtrAllocatorImpl" = type { ptr, ptr, %"class.llvm::SmallVector", %"class.llvm::SmallVector.14", i64, i64 }
%"class.llvm::SmallVector" = type { %"class.llvm::SmallVectorImpl", %"struct.llvm::SmallVectorStorage" }
%"class.llvm::SmallVectorImpl" = type { %"class.llvm::SmallVectorTemplateBase" }
%"class.llvm::SmallVectorTemplateBase" = type { %"class.llvm::SmallVectorTemplateCommon" }
%"class.llvm::SmallVectorTemplateCommon" = type { %"class.llvm::SmallVectorBase" }
%"class.llvm::SmallVectorBase" = type { ptr, i32, i32 }
%"struct.llvm::SmallVectorStorage" = type { [32 x i8] }
%"class.llvm::SmallVector.14" = type { %"class.llvm::SmallVectorImpl.15" }
%"class.llvm::SmallVectorImpl.15" = type { %"class.llvm::SmallVectorTemplateBase.16" }
%"class.llvm::SmallVectorTemplateBase.16" = type { %"class.llvm::SmallVectorTemplateCommon.17" }
%"class.llvm::SmallVectorTemplateCommon.17" = type { %"class.llvm::SmallVectorBase" }
%"class.llvm::SpecificBumpPtrAllocator" = type { %"class.llvm::BumpPtrAllocatorImpl" }
%"class.llvm::SpecificBumpPtrAllocator.19" = type { %"class.llvm::BumpPtrAllocatorImpl" }
%"class.llvm::SpecificBumpPtrAllocator.20" = type { %"class.llvm::BumpPtrAllocatorImpl" }
%"class.llvm::SpecificBumpPtrAllocator.21" = type { %"class.llvm::BumpPtrAllocatorImpl" }
%"class.llvm::SpecificBumpPtrAllocator.22" = type { %"class.llvm::BumpPtrAllocatorImpl" }
%"class.llvm::SpecificBumpPtrAllocator.23" = type { %"class.llvm::BumpPtrAllocatorImpl" }
%"class.llvm::SpecificBumpPtrAllocator.24" = type { %"class.llvm::BumpPtrAllocatorImpl" }
%"class.llvm::SpecificBumpPtrAllocator.25" = type { %"class.llvm::BumpPtrAllocatorImpl" }
%"class.llvm::SpecificBumpPtrAllocator.26" = type { %"class.llvm::BumpPtrAllocatorImpl" }
%"class.llvm::SpecificBumpPtrAllocator.27" = type { %"class.llvm::BumpPtrAllocatorImpl" }
%"class.llvm::StringMap" = type { %"class.llvm::StringMapImpl", %"class.llvm::detail::AllocatorHolder.28" }
%"class.llvm::StringMapImpl" = type { ptr, i32, i32, i32, i32 }
%"class.llvm::detail::AllocatorHolder.28" = type { ptr }
%"class.llvm::DenseMap" = type <{ ptr, i32, i32, i32, [4 x i8] }>
%"class.llvm::StringMap.29" = type { %"class.llvm::StringMapImpl", %"class.llvm::detail::AllocatorHolder.28" }
%"class.llvm::DenseMap.30" = type <{ ptr, i32, i32, i32, [4 x i8] }>
%"class.std::unique_ptr.33" = type { %"struct.std::__uniq_ptr_data.34" }
%"struct.std::__uniq_ptr_data.34" = type { %"class.std::__uniq_ptr_impl.35" }
%"class.std::__uniq_ptr_impl.35" = type { %"class.std::tuple.36" }
%"class.std::tuple.36" = type { %"struct.std::_Tuple_impl.37" }
%"struct.std::_Tuple_impl.37" = type { %"struct.std::_Head_base.40" }
%"struct.std::_Head_base.40" = type { ptr }
%"class.llvm::SmallString" = type { %"class.llvm::SmallVector.41" }
%"class.llvm::SmallVector.41" = type { %"class.llvm::SmallVectorImpl.42", %"struct.llvm::SmallVectorStorage.46" }
%"class.llvm::SmallVectorImpl.42" = type { %"class.llvm::SmallVectorTemplateBase.43" }
%"class.llvm::SmallVectorTemplateBase.43" = type { %"class.llvm::SmallVectorTemplateCommon.44" }
%"class.llvm::SmallVectorTemplateCommon.44" = type { %"class.llvm::SmallVectorBase.45" }
%"class.llvm::SmallVectorBase.45" = type { ptr, i64, i64 }
%"struct.llvm::SmallVectorStorage.46" = type { [128 x i8] }
%"class.llvm::SmallVector.47" = type { %"class.llvm::SmallVectorImpl.48" }
%"class.llvm::SmallVectorImpl.48" = type { %"class.llvm::SmallVectorTemplateBase.49" }
%"class.llvm::SmallVectorTemplateBase.49" = type { %"class.llvm::SmallVectorTemplateCommon.50" }
%"class.llvm::SmallVectorTemplateCommon.50" = type { %"class.llvm::SmallVectorBase" }
%"class.std::map" = type { %"class.std::_Rb_tree" }
%"class.std::_Rb_tree" = type { %"struct.std::_Rb_tree<unsigned int, std::pair<const unsigned int, llvm::MCDwarfLineTable>, std::_Select1st<std::pair<const unsigned int, llvm::MCDwarfLineTable>>, std::less<unsigned int>>::_Rb_tree_impl" }
%"struct.std::_Rb_tree<unsigned int, std::pair<const unsigned int, llvm::MCDwarfLineTable>, std::_Select1st<std::pair<const unsigned int, llvm::MCDwarfLineTable>>, std::less<unsigned int>>::_Rb_tree_impl" = type { [8 x i8], %"struct.std::_Rb_tree_header" }
%"struct.std::_Rb_tree_header" = type { %"struct.std::_Rb_tree_node_base", i64 }
%"struct.std::_Rb_tree_node_base" = type { i32, ptr, ptr, ptr }
%"class.llvm::MCDwarfLoc" = type { i32, i32, i16, i8, i8, i32 }
%"class.llvm::SetVector" = type { %"class.llvm::DenseSet", %"class.llvm::SmallVector.58" }
%"class.llvm::DenseSet" = type { %"class.llvm::detail::DenseSetImpl" }
%"class.llvm::detail::DenseSetImpl" = type { %"class.llvm::DenseMap.55" }
%"class.llvm::DenseMap.55" = type <{ ptr, i32, i32, i32, [4 x i8] }>
%"class.llvm::SmallVector.58" = type { %"class.llvm::SmallVectorImpl.59" }
%"class.llvm::SmallVectorImpl.59" = type { %"class.llvm::SmallVectorTemplateBase.60" }
%"class.llvm::SmallVectorTemplateBase.60" = type { %"class.llvm::SmallVectorTemplateCommon.61" }
%"class.llvm::SmallVectorTemplateCommon.61" = type { %"class.llvm::SmallVectorBase" }
%"class.std::vector.63" = type { %"struct.std::_Vector_base.64" }
%"struct.std::_Vector_base.64" = type { %"struct.std::_Vector_base<llvm::MCGenDwarfLabelEntry, std::allocator<llvm::MCGenDwarfLabelEntry>>::_Vector_impl" }
%"struct.std::_Vector_base<llvm::MCGenDwarfLabelEntry, std::allocator<llvm::MCGenDwarfLabelEntry>>::_Vector_impl" = type { %"struct.std::_Vector_base<llvm::MCGenDwarfLabelEntry, std::allocator<llvm::MCGenDwarfLabelEntry>>::_Vector_impl_data" }
%"struct.std::_Vector_base<llvm::MCGenDwarfLabelEntry, std::allocator<llvm::MCGenDwarfLabelEntry>>::_Vector_impl_data" = type { ptr, ptr, ptr }
%"class.llvm::MCPseudoProbeTable" = type { %"class.llvm::MCPseudoProbeSections" }
%"class.llvm::MCPseudoProbeSections" = type { %"class.std::unordered_map" }
%"class.std::unordered_map" = type { %"class.std::_Hashtable" }
%"class.std::_Hashtable" = type { ptr, i64, %"struct.std::__detail::_Hash_node_base", i64, %"struct.std::__detail::_Prime_rehash_policy", ptr }
%"struct.std::__detail::_Hash_node_base" = type { ptr }
%"struct.std::__detail::_Prime_rehash_policy" = type { float, i64 }
%"class.llvm::StringMap.73" = type { %"class.llvm::StringMapImpl" }
%"class.std::map.74" = type { %"class.std::_Rb_tree.75" }
%"class.std::_Rb_tree.75" = type { %"struct.std::_Rb_tree<llvm::MCContext::COFFSectionKey, std::pair<const llvm::MCContext::COFFSectionKey, llvm::MCSectionCOFF *>, std::_Select1st<std::pair<const llvm::MCContext::COFFSectionKey, llvm::MCSectionCOFF *>>, std::less<llvm::MCContext::COFFSectionKey>>::_Rb_tree_impl" }
%"struct.std::_Rb_tree<llvm::MCContext::COFFSectionKey, std::pair<const llvm::MCContext::COFFSectionKey, llvm::MCSectionCOFF *>, std::_Select1st<std::pair<const llvm::MCContext::COFFSectionKey, llvm::MCSectionCOFF *>>, std::less<llvm::MCContext::COFFSectionKey>>::_Rb_tree_impl" = type { [8 x i8], %"struct.std::_Rb_tree_header" }
%"class.llvm::StringMap.80" = type { %"class.llvm::StringMapImpl" }
%"class.std::map.81" = type { %"class.std::_Rb_tree.82" }
%"class.std::_Rb_tree.82" = type { %"struct.std::_Rb_tree<std::__cxx11::basic_string<char>, std::pair<const std::__cxx11::basic_string<char>, llvm::MCSectionGOFF *>, std::_Select1st<std::pair<const std::__cxx11::basic_string<char>, llvm::MCSectionGOFF *>>, std::less<std::__cxx11::basic_string<char>>>::_Rb_tree_impl" }
%"struct.std::_Rb_tree<std::__cxx11::basic_string<char>, std::pair<const std::__cxx11::basic_string<char>, llvm::MCSectionGOFF *>, std::_Select1st<std::pair<const std::__cxx11::basic_string<char>, llvm::MCSectionGOFF *>>, std::less<std::__cxx11::basic_string<char>>>::_Rb_tree_impl" = type { [8 x i8], %"struct.std::_Rb_tree_header" }
%"class.std::map.87" = type { %"class.std::_Rb_tree.88" }
%"class.std::_Rb_tree.88" = type { %"struct.std::_Rb_tree<llvm::MCContext::WasmSectionKey, std::pair<const llvm::MCContext::WasmSectionKey, llvm::MCSectionWasm *>, std::_Select1st<std::pair<const llvm::MCContext::WasmSectionKey, llvm::MCSectionWasm *>>, std::less<llvm::MCContext::WasmSectionKey>>::_Rb_tree_impl" }
%"struct.std::_Rb_tree<llvm::MCContext::WasmSectionKey, std::pair<const llvm::MCContext::WasmSectionKey, llvm::MCSectionWasm *>, std::_Select1st<std::pair<const llvm::MCContext::WasmSectionKey, llvm::MCSectionWasm *>>, std::less<llvm::MCContext::WasmSectionKey>>::_Rb_tree_impl" = type { [8 x i8], %"struct.std::_Rb_tree_header" }
%"class.std::map.93" = type { %"class.std::_Rb_tree.94" }
%"class.std::_Rb_tree.94" = type { %"struct.std::_Rb_tree<llvm::MCContext::XCOFFSectionKey, std::pair<const llvm::MCContext::XCOFFSectionKey, llvm::MCSectionXCOFF *>, std::_Select1st<std::pair<const llvm::MCContext::XCOFFSectionKey, llvm::MCSectionXCOFF *>>, std::less<llvm::MCContext::XCOFFSectionKey>>::_Rb_tree_impl" }
%"struct.std::_Rb_tree<llvm::MCContext::XCOFFSectionKey, std::pair<const llvm::MCContext::XCOFFSectionKey, llvm::MCSectionXCOFF *>, std::_Select1st<std::pair<const llvm::MCContext::XCOFFSectionKey, llvm::MCSectionXCOFF *>>, std::less<llvm::MCContext::XCOFFSectionKey>>::_Rb_tree_impl" = type { [8 x i8], %"struct.std::_Rb_tree_header" }
%"class.llvm::StringMap.99" = type { %"class.llvm::StringMapImpl" }
%"class.llvm::StringMap.100" = type { %"class.llvm::StringMapImpl" }
%"class.llvm::SpecificBumpPtrAllocator.101" = type { %"class.llvm::BumpPtrAllocatorImpl" }
%"class.llvm::StringMap.102" = type { %"class.llvm::StringMapImpl" }
%"class.llvm::DenseMap.103" = type <{ ptr, i32, i32, i32, [4 x i8] }>
%"class.llvm::DenseSet.106" = type { %"class.llvm::detail::DenseSetImpl.107" }
%"class.llvm::detail::DenseSetImpl.107" = type { %"class.llvm::DenseMap.108" }
%"class.llvm::DenseMap.108" = type <{ ptr, i32, i32, i32, [4 x i8] }>
%"class.llvm::MCTargetOptions" = type <{ i16, i8, i8, i8, i8, [2 x i8], i32, i32, i32, i32, %"class.std::__cxx11::basic_string", %"class.std::__cxx11::basic_string", %"class.std::__cxx11::basic_string", %"class.std::__cxx11::basic_string", ptr, %"class.llvm::ArrayRef", %"class.std::vector.111", i8, [7 x i8] }>
%"class.llvm::ArrayRef" = type { ptr, i64 }
%"class.std::vector.111" = type { %"struct.std::_Vector_base.112" }
%"struct.std::_Vector_base.112" = type { %"struct.std::_Vector_base<std::__cxx11::basic_string<char>, std::allocator<std::__cxx11::basic_string<char>>>::_Vector_impl" }
%"struct.std::_Vector_base<std::__cxx11::basic_string<char>, std::allocator<std::__cxx11::basic_string<char>>>::_Vector_impl" = type { %"struct.std::_Vector_base<std::__cxx11::basic_string<char>, std::allocator<std::__cxx11::basic_string<char>>>::_Vector_impl_data" }
%"struct.std::_Vector_base<std::__cxx11::basic_string<char>, std::allocator<std::__cxx11::basic_string<char>>>::_Vector_impl_data" = type { ptr, ptr, ptr }

; Function Attrs: mustprogress nounwind uwtable
define dso_local noundef i32 @_ZNK4llvm9MCContext19emitDwarfUnwindInfoEv(ptr noundef nonnull align 8 dereferenceable(2432) %0) #0 align 2 {
  %2 = alloca i32, align 4
  %3 = alloca ptr, align 8
  store ptr %0, ptr %3, align 8
  %4 = load ptr, ptr %3, align 8
  %5 = getelementptr inbounds nuw %"class.llvm::MCContext", ptr %4, i32 0, i32 60
  %6 = load ptr, ptr %5, align 8
  %7 = icmp ne ptr %6, null
  br i1 %7, label %9, label %8

8:                                                ; preds = %1
  store i32 2, ptr %2, align 4
  br label %14

9:                                                ; preds = %1
  %10 = getelementptr inbounds nuw %"class.llvm::MCContext", ptr %4, i32 0, i32 60
  %11 = load ptr, ptr %10, align 8
  %12 = getelementptr inbounds nuw %"class.llvm::MCTargetOptions", ptr %11, i32 0, i32 6
  %13 = load i32, ptr %12, align 8
  store i32 %13, ptr %2, align 4
  br label %14

14:                                               ; preds = %9, %8
  %15 = load i32, ptr %2, align 4
  ret i32 %15
}